target datalayout = "e-m:e-p270:32:32-p271:32:32-p272:64:64-i64:64-i128:128-f80:128-n8:16:32:64-S128"
target triple = "x86_64-pc-linux-gnu"

%"class.absl::Cord::InlineRep" = type { %"class.absl::cord_internal::InlineData" }
%"class.absl::cord_internal::InlineData" = type { %"struct.absl::cord_internal::InlineData::Rep" }
%"struct.absl::cord_internal::InlineData::Rep" = type { %union.anon }
%union.anon = type { %"struct.absl::cord_internal::InlineData::Rep::AsTree" }
%"struct.absl::cord_internal::InlineData::Rep::AsTree" = type { i64, ptr }
%"struct.absl::cord_internal::CordRep" = type { i64, %"class.absl::cord_internal::RefcountAndFlags", i8, [3 x i8] }
%"class.absl::cord_internal::RefcountAndFlags" = type { %"struct.std::atomic" }
%"struct.std::atomic" = type { %"struct.std::__atomic_base" }
%"struct.std::__atomic_base" = type { i32 }
%"class.absl::cord_internal::CordzUpdateScope" = type { ptr }
%"struct.absl::cord_internal::CordRepSubstring" = type { %"struct.absl::cord_internal::CordRep", i64, ptr }
%"class.absl::cord_internal::CordzInfo" = type { %"class.absl::cord_internal::CordzHandle", ptr, %"struct.std::atomic.29", %"struct.std::atomic.29", %"class.absl::Mutex", ptr, [64 x ptr], [64 x ptr], i64, i64, i32, i32, %"class.absl::cord_internal::CordzUpdateTracker", %"class.absl::Time", i64 }
%"class.absl::cord_internal::CordzHandle" = type { ptr, i8, ptr, ptr }
%"struct.std::atomic.29" = type { %"struct.std::__atomic_base.30" }
%"struct.std::__atomic_base.30" = type { ptr }
%"class.absl::Mutex" = type { %"struct.std::atomic.31" }
%"struct.std::atomic.31" = type { %"struct.std::__atomic_base.32" }
%"struct.std::__atomic_base.32" = type { i64 }
%"class.absl::cord_internal::CordzUpdateTracker" = type { [25 x %"class.absl::cord_internal::CordzUpdateTracker::Counter"] }
%"class.absl::cord_internal::CordzUpdateTracker::Counter" = type { %"struct.std::atomic.31" }
%"class.absl::Time" = type { %"class.absl::Duration" }
%"class.absl::Duration" = type { %"class.absl::Duration::HiRep", i32 }
%"class.absl::Duration::HiRep" = type { i32, i32 }

; Function Attrs: inlinehint mustprogress nounwind uwtable
define linkonce_odr dso_local void @_ZN4absl13cord_internal9CordzInfo10AssertHeldEv(ptr noundef nonnull align 8 dereferenceable(1344) %0) #8 comdat align 2 {
  %2 = alloca ptr, align 8
  store ptr %0, ptr %2, align 8, !tbaa !53
  ret void
}

; Function Attrs: mustprogress nounwind uwtable
define linkonce_odr dso_local noundef ptr @_ZN4absl13cord_internal10InlineData3Rep4selfEv(ptr noundef nonnull align 8 dereferenceable(16) %0) #5 comdat align 2 {
  %2 = alloca ptr, align 8
  store ptr %0, ptr %2, align 8, !tbaa !149
  %3 = load ptr, ptr %2, align 8
  ret ptr %3
}

; Function Attrs: inlinehint mustprogress uwtable
define linkonce_odr dso_local void @_ZN4absl13cord_internal9CordzInfo10SetCordRepEPNS0_7CordRepE(ptr noundef nonnull align 8 dereferenceable(1344) %0, ptr noundef %1) #6 comdat align 2 {
  %3 = alloca ptr, align 8
  %4 = alloca ptr, align 8
  store ptr %0, ptr %3, align 8, !tbaa !53
  store ptr %1, ptr %4, align 8, !tbaa !11
  %5 = load ptr, ptr %3, align 8
  call void @_ZN4absl13cord_internal9CordzInfo10AssertHeldEv(ptr noundef nonnull align 8 dereferenceable(1344) %5)
  %6 = load ptr, ptr %4, align 8, !tbaa !11
  %7 = getelementptr inbounds nuw %"class.absl::cord_internal::CordzInfo", ptr %5, i32 0, i32 5
  store ptr %6, ptr %7, align 8, !tbaa !175
  ret void
}

; Function Attrs: mustprogress nounwind uwtable
define linkonce_odr dso_local void @_ZN4absl13cord_internal10InlineData3Rep8set_treeEPNS0_7CordRepE(ptr noundef nonnull align 8 dereferenceable(16) %0, ptr noundef %1) #5 comdat align 2 {
  %3 = alloca ptr, align 8
  %4 = alloca ptr, align 8
  store ptr %0, ptr %3, align 8, !tbaa !149
  store ptr %1, ptr %4, align 8, !tbaa !11
  %5 = load ptr, ptr %3, align 8
  %6 = load ptr, ptr %4, align 8, !tbaa !11
  %7 = call noundef ptr @_ZN4absl13cord_internal10InlineData3Rep4selfEv(ptr noundef nonnull align 8 dereferenceable(16) %5)
  %8 = getelementptr inbounds nuw %"struct.absl::cord_internal::InlineData::Rep", ptr %7, i32 0, i32 0
  %9 = getelementptr inbounds nuw %"struct.absl::cord_internal::InlineData::Rep::AsTree", ptr %8, i32 0, i32 1
  store ptr %6, ptr %9, align 8, !tbaa !58
  ret void
}

; Function Attrs: inlinehint mustprogress nounwind uwtable
define linkonce_odr dso_local noundef ptr @_ZNK4absl13cord_internal7CordRep9substringEv(ptr noundef nonnull align 8 dereferenceable(16) %0) #8 comdat align 2 {
  %2 = alloca ptr, align 8
  store ptr %0, ptr %2, align 8, !tbaa !11
  %3 = load ptr, ptr %2, align 8
  ret ptr %3
}

; Function Attrs: mustprogress nounwind uwtable
define linkonce_odr dso_local noundef ptr @_ZNK4absl13cord_internal10InlineData3Rep4selfEv(ptr noundef nonnull align 8 dereferenceable(16) %0) #5 comdat align 2 {
  %2 = alloca ptr, align 8
  store ptr %0, ptr %2, align 8, !tbaa !149
  %3 = load ptr, ptr %2, align 8
  ret ptr %3
}

; Function Attrs: mustprogress uwtable
define linkonce_odr dso_local void @_ZNK4absl13cord_internal16CordzUpdateScope10SetCordRepEPNS0_7CordRepE(ptr noundef nonnull align 8 dereferenceable(8) %0, ptr noundef %1) #4 comdat align 2 {
  %3 = alloca ptr, align 8
  %4 = alloca ptr, align 8
  store ptr %0, ptr %3, align 8, !tbaa !51
  store ptr %1, ptr %4, align 8, !tbaa !11
  %5 = load ptr, ptr %3, align 8
  %6 = getelementptr inbounds nuw %"class.absl::cord_internal::CordzUpdateScope", ptr %5, i32 0, i32 0
  %7 = load ptr, ptr %6, align 8, !tbaa !55
  %8 = icmp ne ptr %7, null
  %9 = zext i1 %8 to i64
  %10 = call i64 @llvm.expect.i64(i64 %9, i64 0)
  %11 = icmp ne i64 %10, 0
  br i1 %11, label %12, label %16

12:                                               ; preds = %2
  %13 = getelementptr inbounds nuw %"class.absl::cord_internal::CordzUpdateScope", ptr %5, i32 0, i32 0
  %14 = load ptr, ptr %13, align 8, !tbaa !55
  %15 = load ptr, ptr %4, align 8, !tbaa !11
  call void @_ZN4absl13cord_internal9CordzInfo10SetCordRepEPNS0_7CordRepE(ptr noundef nonnull align 8 dereferenceable(1344) %14, ptr noundef %15)
  br label %16

16:                                               ; preds = %12, %2
  ret void
}

; Function Attrs: mustprogress uwtable
define linkonce_odr dso_local void @_ZN4absl13cord_internal10InlineData8set_treeEPNS0_7CordRepE(ptr noundef nonnull align 8 dereferenceable(16) %0, ptr noundef %1) #4 comdat align 2 {
  %3 = alloca ptr, align 8
  %4 = alloca ptr, align 8
  store ptr %0, ptr %3, align 8, !tbaa !47
  store ptr %1, ptr %4, align 8, !tbaa !11
  %5 = load ptr, ptr %3, align 8
  %6 = getelementptr inbounds nuw %"class.absl::cord_internal::InlineData", ptr %5, i32 0, i32 0
  %7 = load ptr, ptr %4, align 8, !tbaa !11
  call void @_ZN4absl13cord_internal10InlineData3Rep8set_treeEPNS0_7CordRepE(ptr noundef nonnull align 8 dereferenceable(16) %6, ptr noundef %7)
  ret void
}

; Function Attrs: inlinehint mustprogress uwtable
define linkonce_odr dso_local noundef zeroext i1 @_ZN4absl13cord_internal10IsDataEdgeEPKNS0_7CordRepE(ptr noundef %0) #6 comdat {
  %2 = alloca i1, align 1
  %3 = alloca ptr, align 8
  store ptr %0, ptr %3, align 8, !tbaa !11
  %4 = load ptr, ptr %3, align 8, !tbaa !11
  %5 = getelementptr inbounds nuw %"struct.absl::cord_internal::CordRep", ptr %4, i32 0, i32 2
  %6 = load i8, ptr %5, align 4, !tbaa !39
  %7 = zext i8 %6 to i32
  %8 = icmp eq i32 %7, 5
  br i1 %8, label %15, label %9

9:                                                ; preds = %1
  %10 = load ptr, ptr %3, align 8, !tbaa !11
  %11 = getelementptr inbounds nuw %"struct.absl::cord_internal::CordRep", ptr %10, i32 0, i32 2
  %12 = load i8, ptr %11, align 4, !tbaa !39
  %13 = zext i8 %12 to i32
  %14 = icmp sge i32 %13, 6
  br i1 %14, label %15, label %16

15:                                               ; preds = %9, %1
  store i1 true, ptr %2, align 1
  br label %41

16:                                               ; preds = %9
  %17 = load ptr, ptr %3, align 8, !tbaa !11
  %18 = getelementptr inbounds nuw %"struct.absl::cord_internal::CordRep", ptr %17, i32 0, i32 2
  %19 = load i8, ptr %18, align 4, !tbaa !39
  %20 = zext i8 %19 to i32
  %21 = icmp eq i32 %20, 1
  br i1 %21, label %22, label %27

22:                                               ; preds = %16
  %23 = load ptr, ptr %3, align 8, !tbaa !11
  %24 = call noundef ptr @_ZNK4absl13cord_internal7CordRep9substringEv(ptr noundef nonnull align 8 dereferenceable(16) %23)
  %25 = getelementptr inbounds nuw %"struct.absl::cord_internal::CordRepSubstring", ptr %24, i32 0, i32 2
  %26 = load ptr, ptr %25, align 8, !tbaa !90
  store ptr %26, ptr %3, align 8, !tbaa !11
  br label %27

27:                                               ; preds = %22, %16
  %28 = load ptr, ptr %3, align 8, !tbaa !11
  %29 = getelementptr inbounds nuw %"struct.absl::cord_internal::CordRep", ptr %28, i32 0, i32 2
  %30 = load i8, ptr %29, align 4, !tbaa !39
  %31 = zext i8 %30 to i32
  %32 = icmp eq i32 %31, 5
  br i1 %32, label %39, label %33

33:                                               ; preds = %27
  %34 = load ptr, ptr %3, align 8, !tbaa !11
  %35 = getelementptr inbounds nuw %"struct.absl::cord_internal::CordRep", ptr %34, i32 0, i32 2
  %36 = load i8, ptr %35, align 4, !tbaa !39
  %37 = zext i8 %36 to i32
  %38 = icmp sge i32 %37, 6
  br label %39

39:                                               ; preds = %33, %27
  %40 = phi i1 [ true, %27 ], [ %38, %33 ]
  store i1 %40, ptr %2, align 1
  br label %41

41:                                               ; preds = %39, %15
  %42 = load i1, ptr %2, align 1
  ret i1 %42
}

; Function Attrs: mustprogress nounwind uwtable
define linkonce_odr dso_local noundef ptr @_ZNK4absl13cord_internal10InlineData3Rep4treeEv(ptr noundef nonnull align 8 dereferenceable(16) %0) #5 comdat align 2 {
  %2 = alloca ptr, align 8
  store ptr %0, ptr %2, align 8, !tbaa !149
  %3 = load ptr, ptr %2, align 8
  %4 = call noundef ptr @_ZNK4absl13cord_internal10InlineData3Rep4selfEv(ptr noundef nonnull align 8 dereferenceable(16) %3)
  %5 = getelementptr inbounds nuw %"struct.absl::cord_internal::InlineData::Rep", ptr %4, i32 0, i32 0
  %6 = getelementptr inbounds nuw %"struct.absl::cord_internal::InlineData::Rep::AsTree", ptr %5, i32 0, i32 1
  %7 = load ptr, ptr %6, align 8, !tbaa !58
  ret ptr %7
}

; Function Attrs: inlinehint mustprogress nounwind uwtable
define linkonce_odr dso_local noundef i64 @_ZN4absl13little_endian8ToHost64Em(i64 noundef %0) #8 comdat {
  %2 = alloca i64, align 8
  store i64 %0, ptr %2, align 8, !tbaa !23
  %3 = load i64, ptr %2, align 8, !tbaa !23
  ret i64 %3
}

; Function Attrs: mustprogress nounwind uwtable
define linkonce_odr dso_local noundef i64 @_ZNK4absl13cord_internal10InlineData3Rep10cordz_infoEv(ptr noundef nonnull align 8 dereferenceable(16) %0) #5 comdat align 2 {
  %2 = alloca ptr, align 8
  store ptr %0, ptr %2, align 8, !tbaa !149
  %3 = load ptr, ptr %2, align 8
  %4 = call noundef ptr @_ZNK4absl13cord_internal10InlineData3Rep4selfEv(ptr noundef nonnull align 8 dereferenceable(16) %3)
  %5 = getelementptr inbounds nuw %"struct.absl::cord_internal::InlineData::Rep", ptr %4, i32 0, i32 0
  %6 = getelementptr inbounds nuw %"struct.absl::cord_internal::InlineData::Rep::AsTree", ptr %5, i32 0, i32 0
  %7 = load i64, ptr %6, align 8, !tbaa !58
  ret i64 %7
}

; Function Attrs: inlinehint mustprogress uwtable
define linkonce_odr dso_local void @_ZN4absl4Cord9InlineRep7SetTreeEPNS_13cord_internal7CordRepERKNS2_16CordzUpdateScopeE(ptr noundef nonnull align 8 dereferenceable(16) %0, ptr noundef %1, ptr noundef nonnull align 8 dereferenceable(8) %2) #6 comdat align 2 {
  %4 = alloca ptr, align 8
  %5 = alloca ptr, align 8
  %6 = alloca ptr, align 8
  store ptr %0, ptr %4, align 8, !tbaa !13
  store ptr %1, ptr %5, align 8, !tbaa !11
  store ptr %2, ptr %6, align 8, !tbaa !51
  %7 = load ptr, ptr %4, align 8
  %8 = getelementptr inbounds nuw %"class.absl::Cord::InlineRep", ptr %7, i32 0, i32 0
  %9 = load ptr, ptr %5, align 8, !tbaa !11
  call void @_ZN4absl13cord_internal10InlineData8set_treeEPNS0_7CordRepE(ptr noundef nonnull align 8 dereferenceable(16) %8, ptr noundef %9)
  %10 = load ptr, ptr %6, align 8, !tbaa !51
  %11 = load ptr, ptr %5, align 8, !tbaa !11
  call void @_ZNK4absl13cord_internal16CordzUpdateScope10SetCordRepEPNS0_7CordRepE(ptr noundef nonnull align 8 dereferenceable(8) %10, ptr noundef %11)
  ret void
}

; Function Attrs: inlinehint mustprogress uwtable
define linkonce_odr dso_local noundef ptr @_ZN4absl13cord_internal12CordRepBtree7PrependEPS1_PNS0_7CordRepE(ptr noundef %0, ptr noundef %1) #6 comdat align 2 {
  %3 = alloca ptr, align 8
  %4 = alloca ptr, align 8
  %5 = alloca ptr, align 8
  store ptr %0, ptr %4, align 8, !tbaa !49
  store ptr %1, ptr %5, align 8, !tbaa !11
  %6 = load ptr, ptr %5, align 8, !tbaa !11
  %7 = call noundef zeroext i1 @_ZN4absl13cord_internal10IsDataEdgeEPKNS0_7CordRepE(ptr noundef %6)
  %8 = zext i1 %7 to i64
  %9 = call i64 @llvm.expect.i64(i64 %8, i64 1)
  %10 = icmp ne i64 %9, 0
  br i1 %10, label %11, label %15

11:                                               ; preds = %2
  %12 = load ptr, ptr %4, align 8, !tbaa !49
  %13 = load ptr, ptr %5, align 8, !tbaa !11
  %14 = call noundef ptr @_ZN4absl13cord_internal12CordRepBtree10AddCordRepILNS1_8EdgeTypeE0EEEPS1_S4_PNS0_7CordRepE(ptr noundef %12, ptr noundef %13)
  store ptr %14, ptr %3, align 8
  br label %19

15:                                               ; preds = %2
  %16 = load ptr, ptr %4, align 8, !tbaa !49
  %17 = load ptr, ptr %5, align 8, !tbaa !11
  %18 = call noundef ptr @_ZN4absl13cord_internal12CordRepBtree11PrependSlowEPS1_PNS0_7CordRepE(ptr noundef %16, ptr noundef %17)
  store ptr %18, ptr %3, align 8
  br label %19

19:                                               ; preds = %15, %11
  %20 = load ptr, ptr %3, align 8
  ret ptr %20
}

; Function Attrs: mustprogress uwtable
define linkonce_odr dso_local noundef ptr @_ZNK4absl13cord_internal10InlineData7as_treeEv(ptr noundef nonnull align 8 dereferenceable(16) %0) #4 comdat align 2 {
  %2 = alloca ptr, align 8
  store ptr %0, ptr %2, align 8, !tbaa !47
  %3 = load ptr, ptr %2, align 8
  %4 = getelementptr inbounds nuw %"class.absl::cord_internal::InlineData", ptr %3, i32 0, i32 0
  %5 = call noundef ptr @_ZNK4absl13cord_internal10InlineData3Rep4treeEv(ptr noundef nonnull align 8 dereferenceable(16) %4)
  ret ptr %5
}

; Function Attrs: mustprogress uwtable
define linkonce_odr dso_local void @_ZN4absl13cord_internal16CordzUpdateScopeC2EPNS0_9CordzInfoENS0_18CordzUpdateTracker16MethodIdentifierE(ptr noundef nonnull align 8 dereferenceable(8) %0, ptr noundef %1, i32 noundef %2) unnamed_addr #4 comdat align 2 {
  %4 = alloca ptr, align 8
  %5 = alloca ptr, align 8
  %6 = alloca i32, align 4
  store ptr %0, ptr %4, align 8, !tbaa !51
  store ptr %1, ptr %5, align 8, !tbaa !53
  store i32 %2, ptr %6, align 4, !tbaa !34
  %7 = load ptr, ptr %4, align 8
  %8 = getelementptr inbounds nuw %"class.absl::cord_internal::CordzUpdateScope", ptr %7, i32 0, i32 0
  %9 = load ptr, ptr %5, align 8, !tbaa !53
  store ptr %9, ptr %8, align 8, !tbaa !55
  %10 = getelementptr inbounds nuw %"class.absl::cord_internal::CordzUpdateScope", ptr %7, i32 0, i32 0
  %11 = load ptr, ptr %10, align 8, !tbaa !55
  %12 = icmp ne ptr %11, null
  %13 = zext i1 %12 to i64
  %14 = call i64 @llvm.expect.i64(i64 %13, i64 0)
  %15 = icmp ne i64 %14, 0
  br i1 %15, label %16, label %19

16:                                               ; preds = %3
  %17 = load ptr, ptr %5, align 8, !tbaa !53
  %18 = load i32, ptr %6, align 4, !tbaa !34
  call void @_ZN4absl13cord_internal9CordzInfo4LockENS0_18CordzUpdateTracker16MethodIdentifierE(ptr noundef nonnull align 8 dereferenceable(1344) %17, i32 noundef %18)
  br label %19

19:                                               ; preds = %16, %3
  ret void
}

; Function Attrs: mustprogress uwtable
define linkonce_odr dso_local noundef ptr @_ZNK4absl13cord_internal10InlineData10cordz_infoEv(ptr noundef nonnull align 8 dereferenceable(16) %0) #4 comdat align 2 {
  %2 = alloca ptr, align 8
  %3 = alloca i64, align 8
  store ptr %0, ptr %2, align 8, !tbaa !47
  %4 = load ptr, ptr %2, align 8
  call void @llvm.lifetime.start.p0(i64 8, ptr %3) #3
  %5 = getelementptr inbounds nuw %"class.absl::cord_internal::InlineData", ptr %4, i32 0, i32 0
  %6 = call noundef i64 @_ZNK4absl13cord_internal10InlineData3Rep10cordz_infoEv(ptr noundef nonnull align 8 dereferenceable(16) %5)
  %7 = call noundef i64 @_ZN4absl13little_endian8ToHost64Em(i64 noundef %6)
  store i64 %7, ptr %3, align 8, !tbaa !23
  %8 = load i64, ptr %3, align 8, !tbaa !23
  %9 = sub nsw i64 %8, 1
  %10 = inttoptr i64 %9 to ptr
  call void @llvm.lifetime.end.p0(i64 8, ptr %3) #3
  ret ptr %10
}

; Function Attrs: mustprogress uwtable
define dso_local void @_ZN4absl4Cord9InlineRep17PrependTreeToTreeEPNS_13cord_internal7CordRepENS2_18CordzUpdateTracker16MethodIdentifierE(ptr noundef nonnull align 8 dereferenceable(16) %0, ptr noundef %1, i32 noundef %2) #4 align 2 personality ptr @__gxx_personality_v0 {
  %4 = alloca ptr, align 8
  %5 = alloca ptr, align 8
  %6 = alloca i32, align 4
  %7 = alloca %"class.absl::cord_internal::CordzUpdateScope", align 8
  %8 = alloca ptr, align 8
  %9 = alloca i32, align 4
  store ptr %0, ptr %4, align 8, !tbaa !13
  store ptr %1, ptr %5, align 8, !tbaa !11
  store i32 %2, ptr %6, align 4, !tbaa !34
  %10 = load ptr, ptr %4, align 8
  call void @llvm.lifetime.start.p0(i64 8, ptr %7) #3
  %11 = getelementptr inbounds nuw %"class.absl::Cord::InlineRep", ptr %10, i32 0, i32 0
  %12 = call noundef ptr @_ZNK4absl13cord_internal10InlineData10cordz_infoEv(ptr noundef nonnull align 8 dereferenceable(16) %11)
  %13 = load i32, ptr %6, align 4, !tbaa !34
  call void @_ZN4absl13cord_internal16CordzUpdateScopeC2EPNS0_9CordzInfoENS0_18CordzUpdateTracker16MethodIdentifierE(ptr noundef nonnull align 8 dereferenceable(8) %7, ptr noundef %12, i32 noundef %13)
  %14 = getelementptr inbounds nuw %"class.absl::Cord::InlineRep", ptr %10, i32 0, i32 0
  %15 = invoke noundef ptr @_ZNK4absl13cord_internal10InlineData7as_treeEv(ptr noundef nonnull align 8 dereferenceable(16) %14)
          to label %16 unwind label %24

16:                                               ; preds = %3
  %17 = invoke noundef ptr @_ZN4abslL10ForceBtreeEPNS_13cord_internal7CordRepE(ptr noundef %15)
          to label %18 unwind label %24

18:                                               ; preds = %16
  %19 = load ptr, ptr %5, align 8, !tbaa !11
  %20 = invoke noundef ptr @_ZN4absl13cord_internal12CordRepBtree7PrependEPS1_PNS0_7CordRepE(ptr noundef %17, ptr noundef %19)
          to label %21 unwind label %24

21:                                               ; preds = %18
  store ptr %20, ptr %5, align 8, !tbaa !11
  %22 = load ptr, ptr %5, align 8, !tbaa !11
  invoke void @_ZN4absl4Cord9InlineRep7SetTreeEPNS_13cord_internal7CordRepERKNS2_16CordzUpdateScopeE(ptr noundef nonnull align 8 dereferenceable(16) %10, ptr noundef %22, ptr noundef nonnull align 8 dereferenceable(8) %7)
          to label %23 unwind label %24

23:                                               ; preds = %21
  call void @_ZN4absl13cord_internal16CordzUpdateScopeD2Ev(ptr noundef nonnull align 8 dereferenceable(8) %7) #3
  call void @llvm.lifetime.end.p0(i64 8, ptr %7) #3
  ret void

24:                                               ; preds = %21, %18, %16, %3
  %25 = landingpad { ptr, i32 }
          cleanup
  %26 = extractvalue { ptr, i32 } %25, 0
  store ptr %26, ptr %8, align 8
  %27 = extractvalue { ptr, i32 } %25, 1
  store i32 %27, ptr %9, align 4
  call void @_ZN4absl13cord_internal16CordzUpdateScopeD2Ev(ptr noundef nonnull align 8 dereferenceable(8) %7) #3
  call void @llvm.lifetime.end.p0(i64 8, ptr %7) #3
  br label %28

28:                                               ; preds = %24
  %29 = load ptr, ptr %8, align 8
  %30 = load i32, ptr %9, align 4
  %31 = insertvalue { ptr, i32 } poison, ptr %29, 0
  %32 = insertvalue { ptr, i32 } %31, i32 %30, 1
  resume { ptr, i32 } %32
}