; Function Attrs: mustprogress uwtable
define dso_local void @_ZN4absl4Cord9InlineRep17PrependTreeToTreeEPNS_13cord_internal7CordRepENS2_18CordzUpdateTracker16MethodIdentifierE(ptr noundef nonnull align 8 captures(none) dereferenceable(16) %0, ptr noundef %1, i32 noundef %2) local_unnamed_addr #3 align 2 personality ptr @__gxx_personality_v0 {
  %4 = alloca %"class.absl::cord_internal::CordzUpdateScope", align 8
  call void @llvm.lifetime.start.p0(i64 8, ptr nonnull %4) #27
  %5 = load i64, ptr %0, align 8, !tbaa !13
  %6 = add nsw i64 %5, -1
  %7 = inttoptr i64 %6 to ptr
  store ptr %7, ptr %4, align 8, !tbaa !35
  %.not.i = icmp eq i64 %6, 0
  br i1 %.not.i, label %9, label %8, !prof !27

8:                                                ; preds = %3
  tail call void @_ZN4absl13cord_internal9CordzInfo4LockENS0_18CordzUpdateTracker16MethodIdentifierE(ptr noundef nonnull align 8 dereferenceable(1344) %7, i32 noundef %2)
  br label %9

9:                                                ; preds = %8, %3
  %10 = getelementptr inbounds nuw i8, ptr %0, i64 8
  %11 = load ptr, ptr %10, align 8, !tbaa !13
  %12 = invoke fastcc noundef ptr @_ZN4abslL10ForceBtreeEPNS_13cord_internal7CordRepE(ptr noundef %11)
          to label %13 unwind label %28

13:                                               ; preds = %9
  %14 = getelementptr inbounds nuw i8, ptr %1, i64 12
  %15 = load i8, ptr %14, align 4, !tbaa !23
  %or.cond.i.i = icmp ugt i8 %15, 4
  br i1 %or.cond.i.i, label %_ZN4absl13cord_internal10IsDataEdgeEPKNS0_7CordRepE.exit.thread.i, label %16

16:                                               ; preds = %13
  %17 = icmp eq i8 %15, 1
  br i1 %17, label %_ZN4absl13cord_internal10IsDataEdgeEPKNS0_7CordRepE.exit.i, label %_ZN4absl13cord_internal10IsDataEdgeEPKNS0_7CordRepE.exit.thread7.i, !prof !31

_ZN4absl13cord_internal10IsDataEdgeEPKNS0_7CordRepE.exit.i: ; preds = %16
  %18 = getelementptr inbounds nuw i8, ptr %1, i64 24
  %19 = load ptr, ptr %18, align 8, !tbaa !32
  %.phi.trans.insert.i.i = getelementptr inbounds nuw i8, ptr %19, i64 12
  %.pre.i.i = load i8, ptr %.phi.trans.insert.i.i, align 4, !tbaa !23
  %20 = icmp ugt i8 %.pre.i.i, 4
  br i1 %20, label %_ZN4absl13cord_internal10IsDataEdgeEPKNS0_7CordRepE.exit.thread.i, label %_ZN4absl13cord_internal10IsDataEdgeEPKNS0_7CordRepE.exit.thread7.i, !prof !34

_ZN4absl13cord_internal10IsDataEdgeEPKNS0_7CordRepE.exit.thread.i: ; preds = %_ZN4absl13cord_internal10IsDataEdgeEPKNS0_7CordRepE.exit.i, %13
  %21 = invoke noundef ptr @_ZN4absl13cord_internal12CordRepBtree10AddCordRepILNS1_8EdgeTypeE0EEEPS1_S4_PNS0_7CordRepE(ptr noundef %12, ptr noundef nonnull %1)
          to label %_ZN4absl13cord_internal12CordRepBtree7PrependEPS1_PNS0_7CordRepE.exit unwind label %28

_ZN4absl13cord_internal10IsDataEdgeEPKNS0_7CordRepE.exit.thread7.i: ; preds = %_ZN4absl13cord_internal10IsDataEdgeEPKNS0_7CordRepE.exit.i, %16
  %22 = invoke noundef ptr @_ZN4absl13cord_internal12CordRepBtree11PrependSlowEPS1_PNS0_7CordRepE(ptr noundef %12, ptr noundef nonnull %1)
          to label %_ZN4absl13cord_internal12CordRepBtree7PrependEPS1_PNS0_7CordRepE.exit unwind label %28

_ZN4absl13cord_internal12CordRepBtree7PrependEPS1_PNS0_7CordRepE.exit: ; preds = %_ZN4absl13cord_internal10IsDataEdgeEPKNS0_7CordRepE.exit.thread.i, %_ZN4absl13cord_internal10IsDataEdgeEPKNS0_7CordRepE.exit.thread7.i
  %.0.i = phi ptr [ %21, %_ZN4absl13cord_internal10IsDataEdgeEPKNS0_7CordRepE.exit.thread.i ], [ %22, %_ZN4absl13cord_internal10IsDataEdgeEPKNS0_7CordRepE.exit.thread7.i ]
  store ptr %.0.i, ptr %10, align 8, !tbaa !13
  %.not.i.i = icmp eq i64 %6, 0
  br i1 %.not.i.i, label %_ZN4absl13cord_internal16CordzUpdateScopeD2Ev.exit, label %23, !prof !27

23:                                               ; preds = %_ZN4absl13cord_internal12CordRepBtree7PrependEPS1_PNS0_7CordRepE.exit
  %24 = getelementptr inbounds nuw i8, ptr %7, i64 64
  store ptr %.0.i, ptr %24, align 8, !tbaa !38
  invoke void @_ZN4absl13cord_internal9CordzInfo6UnlockEv(ptr noundef nonnull align 8 dereferenceable(1344) %7)
          to label %_ZN4absl13cord_internal16CordzUpdateScopeD2Ev.exit unwind label %25

25:                                               ; preds = %23
  %26 = landingpad { ptr, i32 }
          catch ptr null
  %27 = extractvalue { ptr, i32 } %26, 0
  tail call void @__clang_call_terminate(ptr %27) #28
  unreachable

_ZN4absl13cord_internal16CordzUpdateScopeD2Ev.exit: ; preds = %_ZN4absl13cord_internal12CordRepBtree7PrependEPS1_PNS0_7CordRepE.exit, %23
  call void @llvm.lifetime.end.p0(i64 8, ptr nonnull %4) #27
  ret void

28:                                               ; preds = %_ZN4absl13cord_internal10IsDataEdgeEPKNS0_7CordRepE.exit.thread7.i, %_ZN4absl13cord_internal10IsDataEdgeEPKNS0_7CordRepE.exit.thread.i, %9
  %29 = landingpad { ptr, i32 }
          cleanup
  call void @_ZN4absl13cord_internal16CordzUpdateScopeD2Ev(ptr noundef nonnull align 8 dereferenceable(8) %4) #27
  call void @llvm.lifetime.end.p0(i64 8, ptr nonnull %4) #27
  resume { ptr, i32 } %29
}